; ModuleID = 'source-C-CXX/42/215.c'
source_filename = "source-C-CXX/42/215.c"
target datalayout = "e-m:e-p270:32:32-p271:32:32-p272:64:64-i64:64-f80:128-n8:16:32:64-S128"
target triple = "x86_64-pc-linux-gnu"

@.str = private unnamed_addr constant [3 x i8] c"%d\00", align 1
@.str.1 = private unnamed_addr constant [7 x i8] c"%d %d\0A\00", align 1

; Function Attrs: nofree nounwind sspstrong uwtable
define dso_local i32 @sushu(i32 %0) local_unnamed_addr #0 {
  %2 = sitofp i32 %0 to double
  %3 = tail call double @sqrt(double %2) #4
  %4 = fcmp ult double %3, 2.000000e+00
  br i1 %4, label %14, label %9

5:                                                ; preds = %9
  %6 = sitofp i32 %13 to double
  %7 = tail call double @sqrt(double %2) #4
  %8 = fcmp ult double %7, %6
  br i1 %8, label %14, label %9, !llvm.loop !5

9:                                                ; preds = %1, %5
  %10 = phi i32 [ %13, %5 ], [ 2, %1 ]
  %11 = srem i32 %0, %10
  %12 = icmp eq i32 %11, 0
  %13 = add nuw nsw i32 %10, 1
  br i1 %12, label %14, label %5

14:                                               ; preds = %9, %5, %1
  %15 = phi i32 [ 1, %1 ], [ 1, %5 ], [ 0, %9 ]
  ret i32 %15
}

; Function Attrs: argmemonly mustprogress nofree nosync nounwind willreturn
declare void @llvm.lifetime.start.p0i8(i64 immarg, i8* nocapture) #1

; Function Attrs: mustprogress nofree nounwind willreturn
declare double @sqrt(double) local_unnamed_addr #2

; Function Attrs: argmemonly mustprogress nofree nosync nounwind willreturn
declare void @llvm.lifetime.end.p0i8(i64 immarg, i8* nocapture) #1

; Function Attrs: nofree nounwind sspstrong uwtable
define dso_local i32 @main() local_unnamed_addr #0 {
  %1 = alloca i32, align 4
  %2 = bitcast i32* %1 to i8*
  call void @llvm.lifetime.start.p0i8(i64 4, i8* nonnull %2) #4
  %3 = call i32 (i8*, ...) @__isoc99_scanf(i8* getelementptr inbounds ([3 x i8], [3 x i8]* @.str, i64 0, i64 0), i32* nonnull %1)
  %4 = load i32, i32* %1, align 4, !tbaa !7
  %5 = icmp sgt i32 %4, 2
  br i1 %5, label %6, label %45

6:                                                ; preds = %0, %41
  %7 = phi i32 [ %42, %41 ], [ 2, %0 ]
  %8 = sitofp i32 %7 to double
  %9 = call double @sqrt(double %8) #4
  %10 = fcmp ult double %9, 2.000000e+00
  br i1 %10, label %20, label %15

11:                                               ; preds = %15
  %12 = sitofp i32 %19 to double
  %13 = call double @sqrt(double %8) #4
  %14 = fcmp ult double %13, %12
  br i1 %14, label %20, label %15, !llvm.loop !5

15:                                               ; preds = %6, %11
  %16 = phi i32 [ %19, %11 ], [ 2, %6 ]
  %17 = urem i32 %7, %16
  %18 = icmp eq i32 %17, 0
  %19 = add nuw nsw i32 %16, 1
  br i1 %18, label %41, label %11

20:                                               ; preds = %11, %6
  %21 = load i32, i32* %1, align 4, !tbaa !7
  %22 = sub nsw i32 %21, %7
  %23 = sitofp i32 %22 to double
  %24 = call double @sqrt(double %23) #4
  %25 = fcmp ult double %24, 2.000000e+00
  br i1 %25, label %35, label %30

26:                                               ; preds = %30
  %27 = sitofp i32 %34 to double
  %28 = call double @sqrt(double %23) #4
  %29 = fcmp ult double %28, %27
  br i1 %29, label %35, label %30, !llvm.loop !5

30:                                               ; preds = %20, %26
  %31 = phi i32 [ %34, %26 ], [ 2, %20 ]
  %32 = srem i32 %22, %31
  %33 = icmp eq i32 %32, 0
  %34 = add nuw nsw i32 %31, 1
  br i1 %33, label %41, label %26

35:                                               ; preds = %26, %20
  %36 = load i32, i32* %1, align 4, !tbaa !7
  %37 = sub nsw i32 %36, %7
  %38 = icmp sgt i32 %7, %37
  br i1 %38, label %41, label %39

39:                                               ; preds = %35
  %40 = call i32 (i8*, ...) @printf(i8* nonnull dereferenceable(1) getelementptr inbounds ([7 x i8], [7 x i8]* @.str.1, i64 0, i64 0), i32 %7, i32 %37)
  br label %41

41:                                               ; preds = %15, %30, %39, %35
  %42 = add nuw nsw i32 %7, 1
  %43 = load i32, i32* %1, align 4, !tbaa !7
  %44 = icmp slt i32 %42, %43
  br i1 %44, label %6, label %45, !llvm.loop !11

45:                                               ; preds = %41, %0
  call void @llvm.lifetime.end.p0i8(i64 4, i8* nonnull %2) #4
  ret i32 0
}

; Function Attrs: nofree nounwind
declare noundef i32 @__isoc99_scanf(i8* nocapture noundef readonly, ...) local_unnamed_addr #3

; Function Attrs: nofree nounwind
declare noundef i32 @printf(i8* nocapture noundef readonly, ...) local_unnamed_addr #3


!llvm.module.flags = !{!0, !1, !2, !3}
!llvm.ident = !{!4}

!0 = !{i32 1, !"wchar_size", i32 4}
!1 = !{i32 7, !"PIC Level", i32 2}
!2 = !{i32 7, !"PIE Level", i32 2}
!3 = !{i32 7, !"uwtable", i32 1}
!4 = !{!"clang version 13.0.0"}
!5 = distinct !{!5, !6}
!6 = !{!"llvm.loop.mustprogress"}
!7 = !{!8, !8, i64 0}
!8 = !{!"int", !9, i64 0}
!9 = !{!"omnipotent char", !10, i64 0}
!10 = !{!"Simple C/C++ TBAA"}
!11 = distinct !{!11, !6}
